; Function Attrs: nounwind sspstrong uwtable
define internal range(i64 0, 4294967296) i64 @sysbus_esp_mem_read(ptr noundef %opaque, i64 noundef %addr, i32 %size) #0 {
entry:
  %esp = getelementptr inbounds nuw i8, ptr %opaque, i64 1368
  %call.i = tail call ptr @object_dynamic_cast_assert(ptr noundef nonnull %esp, ptr noundef nonnull @.str.3, ptr noundef nonnull @.str.104, i32 noundef 20, ptr noundef nonnull @__func__.ESP) #10
  %it_shift = getelementptr inbounds nuw i8, ptr %opaque, i64 1360
  %0 = load i32, ptr %it_shift, align 16
  %sh_prom = zext nneg i32 %0 to i64
  %shr = lshr i64 %addr, %sh_prom
  %conv = trunc i64 %shr to i32
  %call1 = tail call i64 @esp_reg_read(ptr noundef %call.i, i32 noundef %conv)
  ret i64 %call1
}